#include <math.h>
#include <stdio.h>
#include <stdlib.h>
#include <string.h>

int main(int argc, char* argv[])
{
	int i,w,s,s1=0,m[12]={0,31,28,31,30,31,30,31,31,30,31,30};	
	scanf("%d",&w);
	for(i=0;i<12;i++)
	{
		s1+=m[i];
		s=w+12+s1;
		if(s%7==5) printf("%d\n",i+1);

	}
	
	return 0;



}

